; Function Attrs: nounwind uwtable
define range(i32 -1, 1) i32 @H5FO_top_dest(ptr noundef captures(none) %0) local_unnamed_addr #0 {
  %2 = getelementptr inbounds nuw i8, ptr %0, i64 40
  %3 = load ptr, ptr %2, align 8, !tbaa !43
  %4 = tail call i64 @H5SL_count(ptr noundef %3) #2
  %.not = icmp eq i64 %4, 0
  br i1 %.not, label %9, label %5

5:                                                ; preds = %1
  %6 = load i64, ptr @H5E_CACHE_g, align 8, !tbaa !36
  %7 = load i64, ptr @H5E_CANTRELEASE_g, align 8, !tbaa !36
  %8 = tail call i32 (ptr, ptr, i32, i64, i64, ptr, ...) @H5E_printf_stack(ptr noundef nonnull @.str, ptr noundef nonnull @__func__.H5FO_top_dest, i32 noundef 580, i64 noundef %6, i64 noundef %7, ptr noundef nonnull @.str.6) #2
  br label %18

9:                                                ; preds = %1
  %10 = load ptr, ptr %2, align 8, !tbaa !43
  %11 = tail call i32 @H5SL_close(ptr noundef %10) #2
  %12 = icmp slt i32 %11, 0
  br i1 %12, label %13, label %17

13:                                               ; preds = %9
  %14 = load i64, ptr @H5E_CACHE_g, align 8, !tbaa !36
  %15 = load i64, ptr @H5E_CANTCLOSEOBJ_g, align 8, !tbaa !36
  %16 = tail call i32 (ptr, ptr, i32, i64, i64, ptr, ...) @H5E_printf_stack(ptr noundef nonnull @.str, ptr noundef nonnull @__func__.H5FO_top_dest, i32 noundef 584, i64 noundef %14, i64 noundef %15, ptr noundef nonnull @.str.7) #2
  br label %18

17:                                               ; preds = %9
  store ptr null, ptr %2, align 8, !tbaa !43
  br label %18

18:                                               ; preds = %17, %13, %5
  %.0 = phi i32 [ -1, %5 ], [ -1, %13 ], [ 0, %17 ]
  ret i32 %.0
}